target datalayout = "e-m:e-p270:32:32-p271:32:32-p272:64:64-i64:64-i128:128-f80:128-n8:16:32:64-S128"
target triple = "x86_64-pc-linux-gnu"

%struct._zend_array = type { %struct._zend_refcounted_h, %union.anon.0, i32, %union.anon.1, i32, i32, i32, i32, i64, ptr }
%struct._zend_refcounted_h = type { i32, %union.anon }
%union.anon = type { i32 }
%union.anon.0 = type { i32 }
%union.anon.1 = type { ptr }
%struct._zval_struct = type { %union._zend_value, %union.anon.3, %union.anon.6 }
%union._zend_value = type { i64 }
%union.anon.3 = type { i32 }
%union.anon.6 = type { i32 }
%struct._Bucket = type { %struct._zval_struct, i64, ptr }
%struct._zend_string = type { %struct._zend_refcounted_h, i64, i64, [1 x i8] }

; Function Attrs: nounwind uwtable
define ptr @zend_hash_find(ptr noundef %0, ptr noundef %1) #0 {
  %3 = alloca ptr, align 8
  %4 = alloca ptr, align 8
  %5 = alloca ptr, align 8
  %6 = alloca ptr, align 8
  %7 = alloca ptr, align 8
  %8 = alloca i32, align 4
  %9 = alloca i32, align 4
  %10 = alloca ptr, align 8
  %11 = alloca ptr, align 8
  %12 = alloca ptr, align 8
  %13 = alloca ptr, align 8
  %14 = alloca ptr, align 8
  %15 = alloca ptr, align 8
  store ptr %0, ptr %13, align 8
  store ptr %1, ptr %14, align 8
  %16 = load ptr, ptr %14, align 8
  store ptr %16, ptr %12, align 8
  %17 = load ptr, ptr %12, align 8
  %18 = getelementptr inbounds %struct._zend_string, ptr %17, i32 0, i32 1
  %19 = load i64, ptr %18, align 8
  %20 = icmp ne i64 %19, 0
  br i1 %20, label %21, label %22

21:                                               ; preds = %2
  br label %25

22:                                               ; preds = %2
  %23 = load ptr, ptr %12, align 8
  %24 = call i64 @zend_string_hash_func(ptr noundef %23) #15
  br label %25

25:                                               ; preds = %22, %21
  %26 = load ptr, ptr %13, align 8
  %27 = load ptr, ptr %14, align 8
  store ptr %26, ptr %6, align 8
  store ptr %27, ptr %7, align 8
  %28 = load ptr, ptr %7, align 8
  %29 = getelementptr inbounds %struct._zend_string, ptr %28, i32 0, i32 1
  %30 = load i64, ptr %29, align 8
  %31 = icmp ne i64 %30, 0
  br i1 %31, label %32, label %33

32:                                               ; preds = %25
  br label %33

33:                                               ; preds = %32, %25
  %34 = phi i1 [ false, %25 ], [ true, %32 ]
  call void @llvm.assume(i1 %34)
  %35 = load ptr, ptr %6, align 8
  %36 = getelementptr inbounds %struct._zend_array, ptr %35, i32 0, i32 3
  %37 = load ptr, ptr %36, align 8
  store ptr %37, ptr %11, align 8
  %38 = load ptr, ptr %7, align 8
  %39 = getelementptr inbounds %struct._zend_string, ptr %38, i32 0, i32 1
  %40 = load i64, ptr %39, align 8
  %41 = load ptr, ptr %6, align 8
  %42 = getelementptr inbounds %struct._zend_array, ptr %41, i32 0, i32 2
  %43 = load i32, ptr %42, align 4
  %44 = zext i32 %43 to i64
  %45 = or i64 %40, %44
  %46 = trunc i64 %45 to i32
  store i32 %46, ptr %8, align 4
  %47 = load ptr, ptr %11, align 8
  %48 = load i32, ptr %8, align 4
  %49 = sext i32 %48 to i64
  %50 = getelementptr inbounds i32, ptr %47, i64 %49
  %51 = load i32, ptr %50, align 4
  store i32 %51, ptr %9, align 4
  %52 = load i32, ptr %9, align 4
  %53 = icmp eq i32 %52, -1
  br i1 %53, label %54, label %55

54:                                               ; preds = %33
  store ptr null, ptr %5, align 8
  br label %121

55:                                               ; preds = %33
  %56 = load ptr, ptr %11, align 8
  %57 = load i32, ptr %9, align 4
  %58 = zext i32 %57 to i64
  %59 = getelementptr inbounds %struct._Bucket, ptr %56, i64 %58
  store ptr %59, ptr %10, align 8
  %60 = load ptr, ptr %10, align 8
  %61 = getelementptr inbounds %struct._Bucket, ptr %60, i32 0, i32 2
  %62 = load ptr, ptr %61, align 8
  %63 = load ptr, ptr %7, align 8
  %64 = icmp eq ptr %62, %63
  br i1 %64, label %65, label %67

65:                                               ; preds = %55
  %66 = load ptr, ptr %10, align 8
  store ptr %66, ptr %5, align 8
  br label %121

67:                                               ; preds = %55
  br label %68

68:                                               ; preds = %120, %67
  %69 = load ptr, ptr %10, align 8
  %70 = getelementptr inbounds %struct._Bucket, ptr %69, i32 0, i32 1
  %71 = load i64, ptr %70, align 8
  %72 = load ptr, ptr %7, align 8
  %73 = getelementptr inbounds %struct._zend_string, ptr %72, i32 0, i32 1
  %74 = load i64, ptr %73, align 8
  %75 = icmp eq i64 %71, %74
  br i1 %75, label %76, label %101

76:                                               ; preds = %68
  %77 = load ptr, ptr %10, align 8
  %78 = getelementptr inbounds %struct._Bucket, ptr %77, i32 0, i32 2
  %79 = load ptr, ptr %78, align 8
  %80 = icmp ne ptr %79, null
  br i1 %80, label %81, label %101

81:                                               ; preds = %76
  %82 = load ptr, ptr %10, align 8
  %83 = getelementptr inbounds %struct._Bucket, ptr %82, i32 0, i32 2
  %84 = load ptr, ptr %83, align 8
  %85 = load ptr, ptr %7, align 8
  store ptr %84, ptr %3, align 8
  store ptr %85, ptr %4, align 8
  %86 = load ptr, ptr %3, align 8
  %87 = getelementptr inbounds %struct._zend_string, ptr %86, i32 0, i32 2
  %88 = load i64, ptr %87, align 8
  %89 = load ptr, ptr %4, align 8
  %90 = getelementptr inbounds %struct._zend_string, ptr %89, i32 0, i32 2
  %91 = load i64, ptr %90, align 8
  %92 = icmp eq i64 %88, %91
  br i1 %92, label %93, label %97

93:                                               ; preds = %81
  %94 = load ptr, ptr %3, align 8
  %95 = load ptr, ptr %4, align 8
  %96 = call zeroext i1 @zend_string_equal_val(ptr noundef %94, ptr noundef %95) #15
  br label %97

97:                                               ; preds = %93, %81
  %98 = phi i1 [ false, %81 ], [ %96, %93 ]
  br i1 %98, label %99, label %101

99:                                               ; preds = %97
  %100 = load ptr, ptr %10, align 8
  store ptr %100, ptr %5, align 8
  br label %121

101:                                              ; preds = %97, %76, %68
  %102 = load ptr, ptr %10, align 8
  %103 = getelementptr inbounds %struct._zval_struct, ptr %102, i32 0, i32 2
  %104 = load i32, ptr %103, align 4
  store i32 %104, ptr %9, align 4
  %105 = load i32, ptr %9, align 4
  %106 = icmp eq i32 %105, -1
  br i1 %106, label %107, label %108

107:                                              ; preds = %101
  store ptr null, ptr %5, align 8
  br label %121

108:                                              ; preds = %101
  %109 = load ptr, ptr %11, align 8
  %110 = load i32, ptr %9, align 4
  %111 = zext i32 %110 to i64
  %112 = getelementptr inbounds %struct._Bucket, ptr %109, i64 %111
  store ptr %112, ptr %10, align 8
  %113 = load ptr, ptr %10, align 8
  %114 = getelementptr inbounds %struct._Bucket, ptr %113, i32 0, i32 2
  %115 = load ptr, ptr %114, align 8
  %116 = load ptr, ptr %7, align 8
  %117 = icmp eq ptr %115, %116
  br i1 %117, label %118, label %120

118:                                              ; preds = %108
  %119 = load ptr, ptr %10, align 8
  store ptr %119, ptr %5, align 8
  br label %121

120:                                              ; preds = %108
  br label %68

121:                                              ; preds = %118, %107, %99, %65, %54
  %122 = load ptr, ptr %5, align 8
  store ptr %122, ptr %15, align 8
  %123 = load ptr, ptr %15, align 8
  %124 = icmp ne ptr %123, null
  br i1 %124, label %125, label %128

125:                                              ; preds = %121
  %126 = load ptr, ptr %15, align 8
  %127 = getelementptr inbounds %struct._Bucket, ptr %126, i32 0, i32 0
  br label %129

128:                                              ; preds = %121
  br label %129

129:                                              ; preds = %128, %125
  %130 = phi ptr [ %127, %125 ], [ null, %128 ]
  ret ptr %130
}

; Function Attrs: nounwind uwtable
define ptr @zend_hash_find_ptr_lc(ptr noundef %0, ptr noundef %1) #0 {
  %3 = alloca ptr, align 8
  %4 = alloca i32, align 4
  %5 = alloca i32, align 4
  %6 = alloca ptr, align 8
  %7 = alloca ptr, align 8
  %8 = alloca ptr, align 8
  %9 = alloca ptr, align 8
  %10 = alloca ptr, align 8
  %11 = alloca ptr, align 8
  %12 = alloca ptr, align 8
  %13 = alloca ptr, align 8
  %14 = alloca ptr, align 8
  %15 = alloca ptr, align 8
  store ptr %0, ptr %12, align 8
  store ptr %1, ptr %13, align 8
  %16 = load ptr, ptr %13, align 8
  store ptr %16, ptr %11, align 8
  %17 = load ptr, ptr %11, align 8
  %18 = call ptr @zend_string_tolower_ex(ptr noundef %17, i1 noundef zeroext false) #15
  store ptr %18, ptr %15, align 8
  %19 = load ptr, ptr %12, align 8
  %20 = load ptr, ptr %15, align 8
  store ptr %19, ptr %8, align 8
  store ptr %20, ptr %9, align 8
  %21 = load ptr, ptr %8, align 8
  %22 = load ptr, ptr %9, align 8
  %23 = call ptr @zend_hash_find(ptr noundef %21, ptr noundef %22)
  store ptr %23, ptr %10, align 8
  %24 = load ptr, ptr %10, align 8
  %25 = icmp ne ptr %24, null
  br i1 %25, label %26, label %32

26:                                               ; preds = %2
  %27 = load ptr, ptr %10, align 8
  %28 = load ptr, ptr %27, align 8
  %29 = icmp ne ptr %28, null
  call void @llvm.assume(i1 %29)
  %30 = load ptr, ptr %10, align 8
  %31 = load ptr, ptr %30, align 8
  store ptr %31, ptr %7, align 8
  br label %33

32:                                               ; preds = %2
  store ptr null, ptr %7, align 8
  br label %33

33:                                               ; preds = %32, %26
  %34 = load ptr, ptr %7, align 8
  store ptr %34, ptr %14, align 8
  %35 = load ptr, ptr %15, align 8
  store ptr %35, ptr %6, align 8
  %36 = load ptr, ptr %6, align 8
  %37 = getelementptr inbounds %struct._zend_refcounted_h, ptr %36, i32 0, i32 1
  %38 = load i32, ptr %37, align 4
  store i32 %38, ptr %4, align 4
  %39 = load i32, ptr %4, align 4
  %40 = and i32 %39, 1008
  %41 = and i32 %40, 64
  %42 = icmp ne i32 %41, 0
  br i1 %42, label %66, label %43

43:                                               ; preds = %33
  %44 = load ptr, ptr %6, align 8
  store ptr %44, ptr %3, align 8
  %45 = load ptr, ptr %3, align 8
  %46 = load i32, ptr %45, align 4
  %47 = icmp ugt i32 %46, 0
  call void @llvm.assume(i1 %47)
  %48 = load ptr, ptr %3, align 8
  %49 = load i32, ptr %48, align 4
  %50 = add i32 %49, -1
  store i32 %50, ptr %48, align 4
  %51 = icmp eq i32 %50, 0
  br i1 %51, label %52, label %65

52:                                               ; preds = %43
  %53 = load ptr, ptr %6, align 8
  %54 = getelementptr inbounds %struct._zend_refcounted_h, ptr %53, i32 0, i32 1
  %55 = load i32, ptr %54, align 4
  store i32 %55, ptr %5, align 4
  %56 = load i32, ptr %5, align 4
  %57 = and i32 %56, 1008
  %58 = and i32 %57, 128
  %59 = icmp ne i32 %58, 0
  br i1 %59, label %60, label %62

60:                                               ; preds = %52
  %61 = load ptr, ptr %6, align 8
  call void @free(ptr noundef %61) #15
  br label %64

62:                                               ; preds = %52
  %63 = load ptr, ptr %6, align 8
  call void @_efree(ptr noundef %63) #15
  br label %64

64:                                               ; preds = %62, %60
  br label %65

65:                                               ; preds = %64, %43
  br label %66

66:                                               ; preds = %65, %33
  %67 = load ptr, ptr %14, align 8
  ret ptr %67
}