; Function Attrs: nounwind uwtable
define noundef ptr @zend_hash_find_ptr_lc(ptr nocapture noundef readonly %0, ptr noundef %1) local_unnamed_addr #0 {
  %3 = tail call ptr @zend_string_tolower_ex(ptr noundef %1, i1 noundef zeroext false) #27
  %4 = getelementptr inbounds i8, ptr %3, i64 8
  %5 = load i64, ptr %4, align 8
  %.not.i = icmp eq i64 %5, 0
  br i1 %.not.i, label %6, label %8

6:                                                ; preds = %2
  %7 = tail call i64 @zend_string_hash_func(ptr noundef nonnull %3) #27
  %.pre.i = load i64, ptr %4, align 8
  br label %8

8:                                                ; preds = %6, %2
  %9 = phi i64 [ %5, %2 ], [ %.pre.i, %6 ]
  %10 = icmp ne i64 %9, 0
  tail call void @llvm.assume(i1 %10)
  %11 = getelementptr inbounds i8, ptr %0, i64 16
  %12 = load ptr, ptr %11, align 8
  %13 = getelementptr inbounds i8, ptr %0, i64 12
  %14 = load i32, ptr %13, align 4
  %15 = trunc i64 %9 to i32
  %16 = or i32 %14, %15
  %17 = sext i32 %16 to i64
  %18 = getelementptr inbounds i32, ptr %12, i64 %17
  %19 = load i32, ptr %18, align 4
  %20 = icmp eq i32 %19, -1
  br i1 %20, label %zend_hash_find.exit, label %21

21:                                               ; preds = %8
  %22 = zext i32 %19 to i64
  %23 = getelementptr inbounds %struct._Bucket, ptr %12, i64 %22
  %24 = getelementptr inbounds i8, ptr %23, i64 24
  %25 = load ptr, ptr %24, align 8
  %26 = icmp eq ptr %25, %3
  br i1 %26, label %.loopexit, label %.preheader.i

.preheader.i:                                     ; preds = %21
  %27 = getelementptr inbounds i8, ptr %3, i64 16
  br label %28

28:                                               ; preds = %44, %.preheader.i
  %29 = phi ptr [ %48, %44 ], [ %25, %.preheader.i ]
  %.036.i = phi ptr [ %46, %44 ], [ %23, %.preheader.i ]
  %30 = getelementptr inbounds i8, ptr %.036.i, i64 16
  %31 = load i64, ptr %30, align 8
  %32 = load i64, ptr %4, align 8
  %33 = icmp ne i64 %31, %32
  %.not40.i = icmp eq ptr %29, null
  %or.cond.i = or i1 %.not40.i, %33
  br i1 %or.cond.i, label %.critedge.i, label %34

34:                                               ; preds = %28
  %35 = getelementptr inbounds i8, ptr %29, i64 16
  %36 = load i64, ptr %35, align 8
  %37 = load i64, ptr %27, align 8
  %38 = icmp eq i64 %36, %37
  br i1 %38, label %39, label %.critedge.i

39:                                               ; preds = %34
  %40 = tail call zeroext i1 @zend_string_equal_val(ptr noundef nonnull %29, ptr noundef nonnull %3) #27
  br i1 %40, label %.loopexit, label %.critedge.i

.critedge.i:                                      ; preds = %39, %34, %28
  %41 = getelementptr inbounds i8, ptr %.036.i, i64 12
  %42 = load i32, ptr %41, align 4
  %43 = icmp eq i32 %42, -1
  br i1 %43, label %zend_hash_find.exit, label %44

44:                                               ; preds = %.critedge.i
  %45 = zext i32 %42 to i64
  %46 = getelementptr inbounds %struct._Bucket, ptr %12, i64 %45
  %47 = getelementptr inbounds i8, ptr %46, i64 24
  %48 = load ptr, ptr %47, align 8
  %49 = icmp eq ptr %48, %3
  br i1 %49, label %.loopexit, label %28

.loopexit:                                        ; preds = %44, %39, %21
  %.0.i.ph = phi ptr [ %23, %21 ], [ %46, %44 ], [ %.036.i, %39 ]
  %50 = load ptr, ptr %.0.i.ph, align 8, !nonnull !4, !noundef !4
  br label %zend_hash_find.exit

zend_hash_find.exit:                              ; preds = %.critedge.i, %8, %.loopexit
  %.0 = phi ptr [ %50, %.loopexit ], [ null, %8 ], [ null, %.critedge.i ]
  %51 = getelementptr inbounds i8, ptr %3, i64 4
  %52 = load i32, ptr %51, align 4
  %53 = and i32 %52, 64
  %.not21 = icmp eq i32 %53, 0
  br i1 %.not21, label %54, label %63

54:                                               ; preds = %zend_hash_find.exit
  %55 = load i32, ptr %3, align 4
  %56 = icmp ne i32 %55, 0
  tail call void @llvm.assume(i1 %56)
  %57 = add i32 %55, -1
  store i32 %57, ptr %3, align 4
  %58 = icmp eq i32 %57, 0
  br i1 %58, label %59, label %63

59:                                               ; preds = %54
  %60 = and i32 %52, 128
  %.not22 = icmp eq i32 %60, 0
  br i1 %.not22, label %62, label %61

61:                                               ; preds = %59
  tail call void @free(ptr noundef nonnull %3) #27
  br label %63

62:                                               ; preds = %59
  tail call void @_efree(ptr noundef nonnull %3) #27
  br label %63

63:                                               ; preds = %54, %62, %61, %zend_hash_find.exit
  ret ptr %.0
}